target datalayout = "e-m:e-p270:32:32-p271:32:32-p272:64:64-i64:64-i128:128-f80:128-n8:16:32:64-S128"
target triple = "x86_64-pc-linux-gnu"

%struct.bio_st = type { ptr, ptr, ptr, i32, i32, i32, i32, i32, i32, ptr, ptr, i64, i64 }
%struct.b64_struct = type { i32, i32, i32, i32, i32, i32, i32, %struct.evp_encode_ctx_st, [1502 x i8], [1024 x i8] }
%struct.evp_encode_ctx_st = type { i32, i32, [80 x i8], i32, i32 }

; Function Attrs: nounwind uwtable
define internal i32 @b64_write(ptr noundef %0, ptr noundef %1, i32 noundef %2) #0 {
  %4 = alloca i32, align 4
  %5 = alloca ptr, align 8
  %6 = alloca ptr, align 8
  %7 = alloca i32, align 4
  %8 = alloca i32, align 4
  %9 = alloca i32, align 4
  %10 = alloca i32, align 4
  %11 = alloca ptr, align 8
  %12 = alloca i32, align 4
  store ptr %0, ptr %5, align 8, !tbaa !6
  store ptr %1, ptr %6, align 8, !tbaa !11
  store i32 %2, ptr %7, align 4, !tbaa !13
  call void @llvm.lifetime.start.p0(i64 4, ptr %8) #8
  store i32 0, ptr %8, align 4, !tbaa !13
  call void @llvm.lifetime.start.p0(i64 4, ptr %9) #8
  call void @llvm.lifetime.start.p0(i64 4, ptr %10) #8
  call void @llvm.lifetime.start.p0(i64 8, ptr %11) #8
  %13 = load ptr, ptr %5, align 8, !tbaa !6
  %14 = getelementptr inbounds nuw %struct.bio_st, ptr %13, i32 0, i32 9
  %15 = load ptr, ptr %14, align 8, !tbaa !15
  store ptr %15, ptr %11, align 8, !tbaa !19
  %16 = load ptr, ptr %5, align 8, !tbaa !6
  call void @BIO_clear_retry_flags(ptr noundef %16)
  %17 = load ptr, ptr %11, align 8, !tbaa !19
  %18 = getelementptr inbounds nuw %struct.b64_struct, ptr %17, i32 0, i32 4
  %19 = load i32, ptr %18, align 4, !tbaa !21
  %20 = icmp ne i32 %19, 1
  br i1 %20, label %21, label %32

21:                                               ; preds = %3
  %22 = load ptr, ptr %11, align 8, !tbaa !19
  %23 = getelementptr inbounds nuw %struct.b64_struct, ptr %22, i32 0, i32 4
  store i32 1, ptr %23, align 4, !tbaa !21
  %24 = load ptr, ptr %11, align 8, !tbaa !19
  %25 = getelementptr inbounds nuw %struct.b64_struct, ptr %24, i32 0, i32 0
  store i32 0, ptr %25, align 4, !tbaa !24
  %26 = load ptr, ptr %11, align 8, !tbaa !19
  %27 = getelementptr inbounds nuw %struct.b64_struct, ptr %26, i32 0, i32 1
  store i32 0, ptr %27, align 4, !tbaa !25
  %28 = load ptr, ptr %11, align 8, !tbaa !19
  %29 = getelementptr inbounds nuw %struct.b64_struct, ptr %28, i32 0, i32 2
  store i32 0, ptr %29, align 4, !tbaa !26
  %30 = load ptr, ptr %11, align 8, !tbaa !19
  %31 = getelementptr inbounds nuw %struct.b64_struct, ptr %30, i32 0, i32 7
  call void @EVP_EncodeInit(ptr noundef %31)
  br label %32

32:                                               ; preds = %21, %3
  %33 = load ptr, ptr %11, align 8, !tbaa !19
  %34 = getelementptr inbounds nuw %struct.b64_struct, ptr %33, i32 0, i32 0
  %35 = load i32, ptr %34, align 4, !tbaa !24
  %36 = load ptr, ptr %11, align 8, !tbaa !19
  %37 = getelementptr inbounds nuw %struct.b64_struct, ptr %36, i32 0, i32 1
  %38 = load i32, ptr %37, align 4, !tbaa !25
  %39 = sub nsw i32 %35, %38
  store i32 %39, ptr %9, align 4, !tbaa !13
  br label %40

40:                                               ; preds = %61, %32
  %41 = load i32, ptr %9, align 4, !tbaa !13
  %42 = icmp sgt i32 %41, 0
  br i1 %42, label %43, label %70

43:                                               ; preds = %40
  %44 = load ptr, ptr %5, align 8, !tbaa !6
  %45 = getelementptr inbounds nuw %struct.bio_st, ptr %44, i32 0, i32 10
  %46 = load ptr, ptr %45, align 8, !tbaa !27
  %47 = load ptr, ptr %11, align 8, !tbaa !19
  %48 = getelementptr inbounds nuw %struct.b64_struct, ptr %47, i32 0, i32 8
  %49 = load ptr, ptr %11, align 8, !tbaa !19
  %50 = getelementptr inbounds nuw %struct.b64_struct, ptr %49, i32 0, i32 1
  %51 = load i32, ptr %50, align 4, !tbaa !25
  %52 = sext i32 %51 to i64
  %53 = getelementptr inbounds [1502 x i8], ptr %48, i64 0, i64 %52
  %54 = load i32, ptr %9, align 4, !tbaa !13
  %55 = call i32 @BIO_write(ptr noundef %46, ptr noundef %53, i32 noundef %54)
  store i32 %55, ptr %10, align 4, !tbaa !13
  %56 = load i32, ptr %10, align 4, !tbaa !13
  %57 = icmp sle i32 %56, 0
  br i1 %57, label %58, label %61

58:                                               ; preds = %43
  %59 = load ptr, ptr %5, align 8, !tbaa !6
  call void @BIO_copy_next_retry(ptr noundef %59)
  %60 = load i32, ptr %10, align 4, !tbaa !13
  store i32 %60, ptr %4, align 4
  store i32 1, ptr %12, align 4
  br label %258

61:                                               ; preds = %43
  %62 = load i32, ptr %10, align 4, !tbaa !13
  %63 = load ptr, ptr %11, align 8, !tbaa !19
  %64 = getelementptr inbounds nuw %struct.b64_struct, ptr %63, i32 0, i32 1
  %65 = load i32, ptr %64, align 4, !tbaa !25
  %66 = add nsw i32 %65, %62
  store i32 %66, ptr %64, align 4, !tbaa !25
  %67 = load i32, ptr %10, align 4, !tbaa !13
  %68 = load i32, ptr %9, align 4, !tbaa !13
  %69 = sub nsw i32 %68, %67
  store i32 %69, ptr %9, align 4, !tbaa !13
  br label %40, !llvm.loop !28

70:                                               ; preds = %40
  %71 = load ptr, ptr %11, align 8, !tbaa !19
  %72 = getelementptr inbounds nuw %struct.b64_struct, ptr %71, i32 0, i32 1
  store i32 0, ptr %72, align 4, !tbaa !25
  %73 = load ptr, ptr %11, align 8, !tbaa !19
  %74 = getelementptr inbounds nuw %struct.b64_struct, ptr %73, i32 0, i32 0
  store i32 0, ptr %74, align 4, !tbaa !24
  %75 = load ptr, ptr %6, align 8, !tbaa !11
  %76 = icmp eq ptr %75, null
  br i1 %76, label %80, label %77

77:                                               ; preds = %70
  %78 = load i32, ptr %7, align 4, !tbaa !13
  %79 = icmp sle i32 %78, 0
  br i1 %79, label %80, label %81

80:                                               ; preds = %77, %70
  store i32 0, ptr %4, align 4
  store i32 1, ptr %12, align 4
  br label %258

81:                                               ; preds = %77
  br label %82

82:                                               ; preds = %251, %81
  %83 = load i32, ptr %7, align 4, !tbaa !13
  %84 = icmp sgt i32 %83, 0
  br i1 %84, label %85, label %256

85:                                               ; preds = %82
  %86 = load i32, ptr %7, align 4, !tbaa !13
  %87 = icmp sgt i32 %86, 1024
  br i1 %87, label %88, label %89

88:                                               ; preds = %85
  br label %91

89:                                               ; preds = %85
  %90 = load i32, ptr %7, align 4, !tbaa !13
  br label %91

91:                                               ; preds = %89, %88
  %92 = phi i32 [ 1024, %88 ], [ %90, %89 ]
  store i32 %92, ptr %9, align 4, !tbaa !13
  %93 = load ptr, ptr %5, align 8, !tbaa !6
  %94 = call i32 @BIO_test_flags(ptr noundef %93, i32 noundef 256)
  %95 = icmp ne i32 %94, 0
  br i1 %95, label %96, label %187

96:                                               ; preds = %91
  %97 = load ptr, ptr %11, align 8, !tbaa !19
  %98 = getelementptr inbounds nuw %struct.b64_struct, ptr %97, i32 0, i32 2
  %99 = load i32, ptr %98, align 4, !tbaa !26
  %100 = icmp sgt i32 %99, 0
  br i1 %100, label %101, label %152

101:                                              ; preds = %96
  %102 = load ptr, ptr %11, align 8, !tbaa !19
  %103 = getelementptr inbounds nuw %struct.b64_struct, ptr %102, i32 0, i32 2
  %104 = load i32, ptr %103, align 4, !tbaa !26
  %105 = sub nsw i32 3, %104
  store i32 %105, ptr %9, align 4, !tbaa !13
  %106 = load i32, ptr %9, align 4, !tbaa !13
  %107 = load i32, ptr %7, align 4, !tbaa !13
  %108 = icmp sgt i32 %106, %107
  br i1 %108, label %109, label %111

109:                                              ; preds = %101
  %110 = load i32, ptr %7, align 4, !tbaa !13
  store i32 %110, ptr %9, align 4, !tbaa !13
  br label %111

111:                                              ; preds = %109, %101
  %112 = load ptr, ptr %11, align 8, !tbaa !19
  %113 = getelementptr inbounds nuw %struct.b64_struct, ptr %112, i32 0, i32 9
  %114 = load ptr, ptr %11, align 8, !tbaa !19
  %115 = getelementptr inbounds nuw %struct.b64_struct, ptr %114, i32 0, i32 2
  %116 = load i32, ptr %115, align 4, !tbaa !26
  %117 = sext i32 %116 to i64
  %118 = getelementptr inbounds [1024 x i8], ptr %113, i64 0, i64 %117
  %119 = load ptr, ptr %6, align 8, !tbaa !11
  %120 = load i32, ptr %9, align 4, !tbaa !13
  %121 = sext i32 %120 to i64
  call void @llvm.memcpy.p0.p0.i64(ptr align 1 %118, ptr align 1 %119, i64 %121, i1 false)
  %122 = load i32, ptr %9, align 4, !tbaa !13
  %123 = load ptr, ptr %11, align 8, !tbaa !19
  %124 = getelementptr inbounds nuw %struct.b64_struct, ptr %123, i32 0, i32 2
  %125 = load i32, ptr %124, align 4, !tbaa !26
  %126 = add nsw i32 %125, %122
  store i32 %126, ptr %124, align 4, !tbaa !26
  %127 = load i32, ptr %9, align 4, !tbaa !13
  %128 = load i32, ptr %8, align 4, !tbaa !13
  %129 = add nsw i32 %128, %127
  store i32 %129, ptr %8, align 4, !tbaa !13
  %130 = load ptr, ptr %11, align 8, !tbaa !19
  %131 = getelementptr inbounds nuw %struct.b64_struct, ptr %130, i32 0, i32 2
  %132 = load i32, ptr %131, align 4, !tbaa !26
  %133 = icmp slt i32 %132, 3
  br i1 %133, label %134, label %135

134:                                              ; preds = %111
  br label %256

135:                                              ; preds = %111
  %136 = load ptr, ptr %11, align 8, !tbaa !19
  %137 = getelementptr inbounds nuw %struct.b64_struct, ptr %136, i32 0, i32 8
  %138 = getelementptr inbounds [1502 x i8], ptr %137, i64 0, i64 0
  %139 = load ptr, ptr %11, align 8, !tbaa !19
  %140 = getelementptr inbounds nuw %struct.b64_struct, ptr %139, i32 0, i32 9
  %141 = getelementptr inbounds [1024 x i8], ptr %140, i64 0, i64 0
  %142 = load ptr, ptr %11, align 8, !tbaa !19
  %143 = getelementptr inbounds nuw %struct.b64_struct, ptr %142, i32 0, i32 2
  %144 = load i32, ptr %143, align 4, !tbaa !26
  %145 = sext i32 %144 to i64
  %146 = call i64 @EVP_EncodeBlock(ptr noundef %138, ptr noundef %141, i64 noundef %145)
  %147 = trunc i64 %146 to i32
  %148 = load ptr, ptr %11, align 8, !tbaa !19
  %149 = getelementptr inbounds nuw %struct.b64_struct, ptr %148, i32 0, i32 0
  store i32 %147, ptr %149, align 4, !tbaa !24
  %150 = load ptr, ptr %11, align 8, !tbaa !19
  %151 = getelementptr inbounds nuw %struct.b64_struct, ptr %150, i32 0, i32 2
  store i32 0, ptr %151, align 4, !tbaa !26
  br label %186

152:                                              ; preds = %96
  %153 = load i32, ptr %9, align 4, !tbaa !13
  %154 = icmp slt i32 %153, 3
  br i1 %154, label %155, label %168

155:                                              ; preds = %152
  %156 = load ptr, ptr %11, align 8, !tbaa !19
  %157 = getelementptr inbounds nuw %struct.b64_struct, ptr %156, i32 0, i32 9
  %158 = getelementptr inbounds [1024 x i8], ptr %157, i64 0, i64 0
  %159 = load ptr, ptr %6, align 8, !tbaa !11
  %160 = load i32, ptr %9, align 4, !tbaa !13
  %161 = sext i32 %160 to i64
  call void @llvm.memcpy.p0.p0.i64(ptr align 2 %158, ptr align 1 %159, i64 %161, i1 false)
  %162 = load i32, ptr %9, align 4, !tbaa !13
  %163 = load ptr, ptr %11, align 8, !tbaa !19
  %164 = getelementptr inbounds nuw %struct.b64_struct, ptr %163, i32 0, i32 2
  store i32 %162, ptr %164, align 4, !tbaa !26
  %165 = load i32, ptr %9, align 4, !tbaa !13
  %166 = load i32, ptr %8, align 4, !tbaa !13
  %167 = add nsw i32 %166, %165
  store i32 %167, ptr %8, align 4, !tbaa !13
  br label %256

168:                                              ; preds = %152
  %169 = load i32, ptr %9, align 4, !tbaa !13
  %170 = srem i32 %169, 3
  %171 = load i32, ptr %9, align 4, !tbaa !13
  %172 = sub nsw i32 %171, %170
  store i32 %172, ptr %9, align 4, !tbaa !13
  %173 = load ptr, ptr %11, align 8, !tbaa !19
  %174 = getelementptr inbounds nuw %struct.b64_struct, ptr %173, i32 0, i32 8
  %175 = getelementptr inbounds [1502 x i8], ptr %174, i64 0, i64 0
  %176 = load ptr, ptr %6, align 8, !tbaa !11
  %177 = load i32, ptr %9, align 4, !tbaa !13
  %178 = sext i32 %177 to i64
  %179 = call i64 @EVP_EncodeBlock(ptr noundef %175, ptr noundef %176, i64 noundef %178)
  %180 = trunc i64 %179 to i32
  %181 = load ptr, ptr %11, align 8, !tbaa !19
  %182 = getelementptr inbounds nuw %struct.b64_struct, ptr %181, i32 0, i32 0
  store i32 %180, ptr %182, align 4, !tbaa !24
  %183 = load i32, ptr %9, align 4, !tbaa !13
  %184 = load i32, ptr %8, align 4, !tbaa !13
  %185 = add nsw i32 %184, %183
  store i32 %185, ptr %8, align 4, !tbaa !13
  br label %186

186:                                              ; preds = %168, %135
  br label %201

187:                                              ; preds = %91
  %188 = load ptr, ptr %11, align 8, !tbaa !19
  %189 = getelementptr inbounds nuw %struct.b64_struct, ptr %188, i32 0, i32 7
  %190 = load ptr, ptr %11, align 8, !tbaa !19
  %191 = getelementptr inbounds nuw %struct.b64_struct, ptr %190, i32 0, i32 8
  %192 = getelementptr inbounds [1502 x i8], ptr %191, i64 0, i64 0
  %193 = load ptr, ptr %11, align 8, !tbaa !19
  %194 = getelementptr inbounds nuw %struct.b64_struct, ptr %193, i32 0, i32 0
  %195 = load ptr, ptr %6, align 8, !tbaa !11
  %196 = load i32, ptr %9, align 4, !tbaa !13
  %197 = sext i32 %196 to i64
  call void @EVP_EncodeUpdate(ptr noundef %189, ptr noundef %192, ptr noundef %194, ptr noundef %195, i64 noundef %197)
  %198 = load i32, ptr %9, align 4, !tbaa !13
  %199 = load i32, ptr %8, align 4, !tbaa !13
  %200 = add nsw i32 %199, %198
  store i32 %200, ptr %8, align 4, !tbaa !13
  br label %201

201:                                              ; preds = %187, %186
  %202 = load i32, ptr %9, align 4, !tbaa !13
  %203 = load i32, ptr %7, align 4, !tbaa !13
  %204 = sub nsw i32 %203, %202
  store i32 %204, ptr %7, align 4, !tbaa !13
  %205 = load i32, ptr %9, align 4, !tbaa !13
  %206 = load ptr, ptr %6, align 8, !tbaa !11
  %207 = sext i32 %205 to i64
  %208 = getelementptr inbounds i8, ptr %206, i64 %207
  store ptr %208, ptr %6, align 8, !tbaa !11
  %209 = load ptr, ptr %11, align 8, !tbaa !19
  %210 = getelementptr inbounds nuw %struct.b64_struct, ptr %209, i32 0, i32 1
  store i32 0, ptr %210, align 4, !tbaa !25
  %211 = load ptr, ptr %11, align 8, !tbaa !19
  %212 = getelementptr inbounds nuw %struct.b64_struct, ptr %211, i32 0, i32 0
  %213 = load i32, ptr %212, align 4, !tbaa !24
  store i32 %213, ptr %9, align 4, !tbaa !13
  br label %214

214:                                              ; preds = %242, %201
  %215 = load i32, ptr %9, align 4, !tbaa !13
  %216 = icmp sgt i32 %215, 0
  br i1 %216, label %217, label %251

217:                                              ; preds = %214
  %218 = load ptr, ptr %5, align 8, !tbaa !6
  %219 = getelementptr inbounds nuw %struct.bio_st, ptr %218, i32 0, i32 10
  %220 = load ptr, ptr %219, align 8, !tbaa !27
  %221 = load ptr, ptr %11, align 8, !tbaa !19
  %222 = getelementptr inbounds nuw %struct.b64_struct, ptr %221, i32 0, i32 8
  %223 = load ptr, ptr %11, align 8, !tbaa !19
  %224 = getelementptr inbounds nuw %struct.b64_struct, ptr %223, i32 0, i32 1
  %225 = load i32, ptr %224, align 4, !tbaa !25
  %226 = sext i32 %225 to i64
  %227 = getelementptr inbounds [1502 x i8], ptr %222, i64 0, i64 %226
  %228 = load i32, ptr %9, align 4, !tbaa !13
  %229 = call i32 @BIO_write(ptr noundef %220, ptr noundef %227, i32 noundef %228)
  store i32 %229, ptr %10, align 4, !tbaa !13
  %230 = load i32, ptr %10, align 4, !tbaa !13
  %231 = icmp sle i32 %230, 0
  br i1 %231, label %232, label %242

232:                                              ; preds = %217
  %233 = load ptr, ptr %5, align 8, !tbaa !6
  call void @BIO_copy_next_retry(ptr noundef %233)
  %234 = load i32, ptr %8, align 4, !tbaa !13
  %235 = icmp eq i32 %234, 0
  br i1 %235, label %236, label %238

236:                                              ; preds = %232
  %237 = load i32, ptr %10, align 4, !tbaa !13
  br label %240

238:                                              ; preds = %232
  %239 = load i32, ptr %8, align 4, !tbaa !13
  br label %240

240:                                              ; preds = %238, %236
  %241 = phi i32 [ %237, %236 ], [ %239, %238 ]
  store i32 %241, ptr %4, align 4
  store i32 1, ptr %12, align 4
  br label %258

242:                                              ; preds = %217
  %243 = load i32, ptr %10, align 4, !tbaa !13
  %244 = load i32, ptr %9, align 4, !tbaa !13
  %245 = sub nsw i32 %244, %243
  store i32 %245, ptr %9, align 4, !tbaa !13
  %246 = load i32, ptr %10, align 4, !tbaa !13
  %247 = load ptr, ptr %11, align 8, !tbaa !19
  %248 = getelementptr inbounds nuw %struct.b64_struct, ptr %247, i32 0, i32 1
  %249 = load i32, ptr %248, align 4, !tbaa !25
  %250 = add nsw i32 %249, %246
  store i32 %250, ptr %248, align 4, !tbaa !25
  br label %214, !llvm.loop !30

251:                                              ; preds = %214
  %252 = load ptr, ptr %11, align 8, !tbaa !19
  %253 = getelementptr inbounds nuw %struct.b64_struct, ptr %252, i32 0, i32 0
  store i32 0, ptr %253, align 4, !tbaa !24
  %254 = load ptr, ptr %11, align 8, !tbaa !19
  %255 = getelementptr inbounds nuw %struct.b64_struct, ptr %254, i32 0, i32 1
  store i32 0, ptr %255, align 4, !tbaa !25
  br label %82, !llvm.loop !31

256:                                              ; preds = %155, %134, %82
  %257 = load i32, ptr %8, align 4, !tbaa !13
  store i32 %257, ptr %4, align 4
  store i32 1, ptr %12, align 4
  br label %258

258:                                              ; preds = %256, %240, %80, %58
  call void @llvm.lifetime.end.p0(i64 8, ptr %11) #8
  call void @llvm.lifetime.end.p0(i64 4, ptr %10) #8
  call void @llvm.lifetime.end.p0(i64 4, ptr %9) #8
  call void @llvm.lifetime.end.p0(i64 4, ptr %8) #8
  %259 = load i32, ptr %4, align 4
  ret i32 %259
}