; Function Attrs: nounwind uwtable
define internal i32 @b64_write(ptr noundef %0, ptr noundef %1, i32 noundef %2) #1 {
  %4 = getelementptr inbounds nuw i8, ptr %0, i64 48
  %5 = load ptr, ptr %4, align 8, !tbaa !6
  tail call void @BIO_clear_retry_flags(ptr noundef %0) #11
  %6 = getelementptr inbounds nuw i8, ptr %5, i64 16
  %7 = load i32, ptr %6, align 4, !tbaa !16
  %.not = icmp eq i32 %7, 1
  br i1 %.not, label %12, label %8

8:                                                ; preds = %3
  store i32 1, ptr %6, align 4, !tbaa !16
  store i32 0, ptr %5, align 4, !tbaa !19
  %9 = getelementptr inbounds nuw i8, ptr %5, i64 4
  store i32 0, ptr %9, align 4, !tbaa !20
  %10 = getelementptr inbounds nuw i8, ptr %5, i64 8
  store i32 0, ptr %10, align 4, !tbaa !21
  %11 = getelementptr inbounds nuw i8, ptr %5, i64 28
  tail call void @EVP_EncodeInit(ptr noundef nonnull %11) #11
  br label %12

12:                                               ; preds = %8, %3
  %13 = load i32, ptr %5, align 4, !tbaa !19
  %14 = getelementptr inbounds nuw i8, ptr %5, i64 4
  %15 = load i32, ptr %14, align 4, !tbaa !20
  %16 = sub nsw i32 %13, %15
  %17 = icmp sgt i32 %16, 0
  br i1 %17, label %.lr.ph, label %._crit_edge

.lr.ph:                                           ; preds = %12
  %18 = getelementptr inbounds nuw i8, ptr %0, i64 56
  %19 = getelementptr inbounds nuw i8, ptr %5, i64 124
  br label %20

20:                                               ; preds = %.lr.ph, %28
  %21 = phi i32 [ %15, %.lr.ph ], [ %30, %28 ]
  %.096122 = phi i32 [ %16, %.lr.ph ], [ %31, %28 ]
  %22 = load ptr, ptr %18, align 8, !tbaa !22
  %23 = sext i32 %21 to i64
  %24 = getelementptr inbounds [1502 x i8], ptr %19, i64 0, i64 %23
  %25 = tail call i32 @BIO_write(ptr noundef %22, ptr noundef nonnull %24, i32 noundef %.096122) #11
  %26 = icmp slt i32 %25, 1
  br i1 %26, label %27, label %28

27:                                               ; preds = %20
  tail call void @BIO_copy_next_retry(ptr noundef nonnull %0) #11
  br label %.loopexit

28:                                               ; preds = %20
  %29 = load i32, ptr %14, align 4, !tbaa !20
  %30 = add nsw i32 %29, %25
  store i32 %30, ptr %14, align 4, !tbaa !20
  %31 = sub nsw i32 %.096122, %25
  %32 = icmp sgt i32 %31, 0
  br i1 %32, label %20, label %._crit_edge, !llvm.loop !23

._crit_edge:                                      ; preds = %28, %12
  store i32 0, ptr %14, align 4, !tbaa !20
  store i32 0, ptr %5, align 4, !tbaa !19
  %33 = icmp eq ptr %1, null
  %34 = icmp slt i32 %2, 1
  %or.cond = or i1 %33, %34
  br i1 %or.cond, label %.loopexit, label %.preheader

.preheader:                                       ; preds = %._crit_edge
  %35 = getelementptr inbounds nuw i8, ptr %5, i64 8
  %36 = getelementptr inbounds nuw i8, ptr %5, i64 124
  %37 = getelementptr inbounds nuw i8, ptr %5, i64 1626
  %38 = getelementptr inbounds nuw i8, ptr %5, i64 28
  %39 = getelementptr inbounds nuw i8, ptr %0, i64 56
  br label %40

40:                                               ; preds = %.preheader, %._crit_edge126
  %.097129 = phi i32 [ 0, %.preheader ], [ %.299, %._crit_edge126 ]
  %.0100128 = phi i32 [ %2, %.preheader ], [ %76, %._crit_edge126 ]
  %.0101127 = phi ptr [ %1, %.preheader ], [ %78, %._crit_edge126 ]
  %41 = tail call i32 @llvm.umin.i32(i32 %.0100128, i32 1024)
  %42 = tail call i32 @BIO_test_flags(ptr noundef %0, i32 noundef 256) #11
  %.not113 = icmp eq i32 %42, 0
  br i1 %.not113, label %71, label %43

43:                                               ; preds = %40
  %44 = load i32, ptr %35, align 4, !tbaa !21
  %45 = icmp sgt i32 %44, 0
  br i1 %45, label %46, label %59

46:                                               ; preds = %43
  %47 = sub nsw i32 3, %44
  %48 = icmp sgt i32 %47, %.0100128
  %spec.select = select i1 %48, i32 1, i32 %47
  %49 = zext nneg i32 %44 to i64
  %50 = getelementptr inbounds nuw [1024 x i8], ptr %37, i64 0, i64 %49
  %51 = sext i32 %spec.select to i64
  tail call void @llvm.memcpy.p0.p0.i64(ptr nonnull align 1 %50, ptr align 1 %.0101127, i64 %51, i1 false)
  %52 = add nsw i32 %44, %spec.select
  store i32 %52, ptr %35, align 4, !tbaa !21
  %53 = add nsw i32 %spec.select, %.097129
  %54 = icmp slt i32 %52, 3
  br i1 %54, label %.loopexit, label %55

55:                                               ; preds = %46
  %56 = zext nneg i32 %52 to i64
  %57 = tail call i64 @EVP_EncodeBlock(ptr noundef nonnull %36, ptr noundef nonnull %37, i64 noundef %56) #11
  %58 = trunc i64 %57 to i32
  store i32 %58, ptr %5, align 4, !tbaa !19
  store i32 0, ptr %35, align 4, !tbaa !21
  br label %74

59:                                               ; preds = %43
  %60 = icmp samesign ult i32 %.0100128, 3
  br i1 %60, label %61, label %64

61:                                               ; preds = %59
  %62 = zext nneg i32 %41 to i64
  tail call void @llvm.memcpy.p0.p0.i64(ptr nonnull align 2 %37, ptr align 1 %.0101127, i64 %62, i1 false)
  store i32 %41, ptr %35, align 4, !tbaa !21
  %63 = add nsw i32 %.097129, %41
  br label %.loopexit

64:                                               ; preds = %59
  %.lhs.trunc = trunc nuw nsw i32 %41 to i16
  %65 = urem i16 %.lhs.trunc, 3
  %.zext = zext nneg i16 %65 to i32
  %66 = sub nsw i32 %41, %.zext
  %67 = zext nneg i32 %66 to i64
  %68 = tail call i64 @EVP_EncodeBlock(ptr noundef nonnull %36, ptr noundef %.0101127, i64 noundef %67) #11
  %69 = trunc i64 %68 to i32
  store i32 %69, ptr %5, align 4, !tbaa !19
  %70 = add nsw i32 %66, %.097129
  br label %74

71:                                               ; preds = %40
  %72 = zext nneg i32 %41 to i64
  tail call void @EVP_EncodeUpdate(ptr noundef nonnull %38, ptr noundef nonnull %36, ptr noundef nonnull %5, ptr noundef %.0101127, i64 noundef %72) #11
  %73 = add nsw i32 %.097129, %41
  %.pre = load i32, ptr %5, align 4, !tbaa !19
  br label %74

74:                                               ; preds = %55, %64, %71
  %75 = phi i32 [ %58, %55 ], [ %69, %64 ], [ %.pre, %71 ]
  %.299 = phi i32 [ %53, %55 ], [ %70, %64 ], [ %73, %71 ]
  %.2 = phi i32 [ %spec.select, %55 ], [ %66, %64 ], [ %41, %71 ]
  %76 = sub nsw i32 %.0100128, %.2
  %77 = sext i32 %.2 to i64
  %78 = getelementptr inbounds i8, ptr %.0101127, i64 %77
  store i32 0, ptr %14, align 4, !tbaa !20
  %79 = icmp sgt i32 %75, 0
  br i1 %79, label %.lr.ph125, label %._crit_edge126

.lr.ph125:                                        ; preds = %74, %89
  %80 = phi i32 [ %92, %89 ], [ 0, %74 ]
  %.3123 = phi i32 [ %90, %89 ], [ %75, %74 ]
  %81 = load ptr, ptr %39, align 8, !tbaa !22
  %82 = sext i32 %80 to i64
  %83 = getelementptr inbounds [1502 x i8], ptr %36, i64 0, i64 %82
  %84 = tail call i32 @BIO_write(ptr noundef %81, ptr noundef nonnull %83, i32 noundef %.3123) #11
  %85 = icmp slt i32 %84, 1
  br i1 %85, label %86, label %89

86:                                               ; preds = %.lr.ph125
  tail call void @BIO_copy_next_retry(ptr noundef nonnull %0) #11
  %87 = icmp eq i32 %.299, 0
  %88 = select i1 %87, i32 %84, i32 %.299
  br label %.loopexit

89:                                               ; preds = %.lr.ph125
  %90 = sub nsw i32 %.3123, %84
  %91 = load i32, ptr %14, align 4, !tbaa !20
  %92 = add nsw i32 %91, %84
  store i32 %92, ptr %14, align 4, !tbaa !20
  %93 = icmp sgt i32 %90, 0
  br i1 %93, label %.lr.ph125, label %._crit_edge126, !llvm.loop !25

._crit_edge126:                                   ; preds = %89, %74
  store i32 0, ptr %5, align 4, !tbaa !19
  store i32 0, ptr %14, align 4, !tbaa !20
  %94 = icmp sgt i32 %76, 0
  br i1 %94, label %40, label %.loopexit, !llvm.loop !26

.loopexit:                                        ; preds = %._crit_edge126, %46, %61, %._crit_edge, %86, %27
  %.0 = phi i32 [ %25, %27 ], [ %88, %86 ], [ 0, %._crit_edge ], [ %63, %61 ], [ %.299, %._crit_edge126 ], [ %53, %46 ]
  ret i32 %.0
}